; Function Attrs: nounwind uwtable
define noalias noundef ptr @Amap_CreateRulesPrime(ptr noundef %0, ptr noundef readonly captures(none) %1, ptr noundef readonly captures(none) %2, ptr noundef readonly captures(none) %3) local_unnamed_addr #0 {
  %5 = getelementptr inbounds nuw i8, ptr %0, i64 120
  %6 = load ptr, ptr %5, align 8
  %7 = icmp eq ptr %6, null
  br i1 %7, label %8, label %13

8:                                                ; preds = %4
  %9 = tail call noalias dereferenceable_or_null(16) ptr @malloc(i64 noundef 16) #10
  %10 = getelementptr inbounds nuw i8, ptr %9, i64 4
  store i32 0, ptr %10, align 4
  store i32 100, ptr %9, align 8
  %11 = tail call noalias dereferenceable_or_null(400) ptr @malloc(i64 noundef 400) #10
  %12 = getelementptr inbounds nuw i8, ptr %9, i64 8
  store ptr %11, ptr %12, align 8
  store ptr %9, ptr %5, align 8
  br label %13

13:                                               ; preds = %8, %4
  %14 = tail call noalias dereferenceable_or_null(16) ptr @malloc(i64 noundef 16) #10
  %15 = getelementptr inbounds nuw i8, ptr %14, i64 4
  store i32 0, ptr %15, align 4
  store i32 16, ptr %14, align 8
  %16 = tail call noalias dereferenceable_or_null(64) ptr @malloc(i64 noundef 64) #10
  %17 = getelementptr inbounds nuw i8, ptr %14, i64 8
  store ptr %16, ptr %17, align 8
  %18 = getelementptr i8, ptr %1, i64 4
  %.val46 = load i32, ptr %18, align 4
  %19 = icmp sgt i32 %.val46, 0
  br i1 %19, label %.lr.ph48, label %.critedge

.lr.ph48:                                         ; preds = %13
  %20 = getelementptr i8, ptr %1, i64 8
  %21 = getelementptr i8, ptr %2, i64 4
  %22 = getelementptr i8, ptr %2, i64 8
  %23 = getelementptr i8, ptr %3, i64 4
  %24 = getelementptr i8, ptr %3, i64 8
  %25 = load i32, ptr %21, align 4
  %26 = icmp sgt i32 %25, 0
  br i1 %26, label %.lr.ph48.split, label %.critedge

.lr.ph48.split:                                   ; preds = %.lr.ph48, %.critedge2
  %.val66 = phi i32 [ %.val, %.critedge2 ], [ %.val46, %.lr.ph48 ]
  %.val3662 = phi i32 [ %.val3663, %.critedge2 ], [ %25, %.lr.ph48 ]
  %.val3643 = phi i32 [ %.val364359, %.critedge2 ], [ %25, %.lr.ph48 ]
  %indvars.iv55 = phi i64 [ %indvars.iv.next56, %.critedge2 ], [ 0, %.lr.ph48 ]
  %.val38 = load ptr, ptr %20, align 8
  %27 = getelementptr inbounds nuw i32, ptr %.val38, i64 %indvars.iv55
  %28 = load i32, ptr %27, align 4
  %29 = icmp sgt i32 %.val3643, 0
  br i1 %29, label %.lr.ph45, label %.critedge2

.lr.ph45:                                         ; preds = %.lr.ph48.split
  %30 = load i32, ptr %23, align 4
  %31 = icmp sgt i32 %30, 0
  br i1 %31, label %.lr.ph45.split, label %.critedge2

.lr.ph45.split:                                   ; preds = %.lr.ph45, %.critedge4
  %.val3664 = phi i32 [ %.val36, %.critedge4 ], [ %.val3662, %.lr.ph45 ]
  %.val3741 = phi i32 [ %.val374161, %.critedge4 ], [ %30, %.lr.ph45 ]
  %indvars.iv52 = phi i64 [ %indvars.iv.next53, %.critedge4 ], [ 0, %.lr.ph45 ]
  %.val39 = load ptr, ptr %22, align 8
  %32 = getelementptr inbounds nuw i32, ptr %.val39, i64 %indvars.iv52
  %33 = load i32, ptr %32, align 4
  %34 = icmp sgt i32 %.val3741, 0
  br i1 %34, label %.lr.ph, label %.critedge4

.lr.ph:                                           ; preds = %.lr.ph45.split, %Vec_IntPush.exit
  %indvars.iv = phi i64 [ %indvars.iv.next, %Vec_IntPush.exit ], [ 0, %.lr.ph45.split ]
  %.val40 = load ptr, ptr %24, align 8
  %35 = getelementptr inbounds nuw i32, ptr %.val40, i64 %indvars.iv
  %36 = load i32, ptr %35, align 4
  %37 = tail call i32 @Amap_LibFindMux(ptr noundef %0, i32 noundef %28, i32 noundef %33, i32 noundef %36) #11
  %38 = icmp eq i32 %37, -1
  br i1 %38, label %39, label %41

39:                                               ; preds = %.lr.ph
  %40 = tail call i32 @Amap_LibCreateMux(ptr noundef %0, i32 noundef %28, i32 noundef %33, i32 noundef %36) #11
  br label %41

41:                                               ; preds = %39, %.lr.ph
  %.034 = phi i32 [ %40, %39 ], [ %37, %.lr.ph ]
  %42 = shl nsw i32 %.034, 1
  %43 = load i32, ptr %15, align 4
  %44 = load i32, ptr %14, align 8
  %45 = icmp eq i32 %43, %44
  br i1 %45, label %46, label %.Vec_IntGrow.exit10_crit_edge.i

.Vec_IntGrow.exit10_crit_edge.i:                  ; preds = %41
  %.pre.i = load ptr, ptr %17, align 8
  br label %Vec_IntPush.exit

46:                                               ; preds = %41
  %47 = icmp slt i32 %43, 16
  br i1 %47, label %48, label %55

48:                                               ; preds = %46
  %49 = load ptr, ptr %17, align 8
  %.not9.i.i = icmp eq ptr %49, null
  br i1 %.not9.i.i, label %52, label %50

50:                                               ; preds = %48
  %51 = tail call dereferenceable_or_null(64) ptr @realloc(ptr noundef nonnull %49, i64 noundef 64) #12
  br label %Vec_IntGrow.exit.i

52:                                               ; preds = %48
  %53 = tail call noalias dereferenceable_or_null(64) ptr @malloc(i64 noundef 64) #10
  br label %Vec_IntGrow.exit.i

Vec_IntGrow.exit.i:                               ; preds = %52, %50
  %54 = phi ptr [ %51, %50 ], [ %53, %52 ]
  store ptr %54, ptr %17, align 8
  store i32 16, ptr %14, align 8
  br label %Vec_IntPush.exit

55:                                               ; preds = %46
  %56 = shl nuw nsw i32 %43, 1
  %57 = load ptr, ptr %17, align 8
  %.not9.i9.i = icmp eq ptr %57, null
  %58 = zext nneg i32 %56 to i64
  %59 = shl nuw nsw i64 %58, 2
  br i1 %.not9.i9.i, label %62, label %60

60:                                               ; preds = %55
  %61 = tail call ptr @realloc(ptr noundef nonnull %57, i64 noundef %59) #12
  br label %64

62:                                               ; preds = %55
  %63 = tail call noalias ptr @malloc(i64 noundef %59) #10
  br label %64

64:                                               ; preds = %62, %60
  %65 = phi ptr [ %61, %60 ], [ %63, %62 ]
  store ptr %65, ptr %17, align 8
  store i32 %56, ptr %14, align 8
  br label %Vec_IntPush.exit

Vec_IntPush.exit:                                 ; preds = %.Vec_IntGrow.exit10_crit_edge.i, %Vec_IntGrow.exit.i, %64
  %66 = phi ptr [ %.pre.i, %.Vec_IntGrow.exit10_crit_edge.i ], [ %65, %64 ], [ %54, %Vec_IntGrow.exit.i ]
  %67 = add nsw i32 %43, 1
  store i32 %67, ptr %15, align 4
  %68 = sext i32 %43 to i64
  %69 = getelementptr inbounds i32, ptr %66, i64 %68
  store i32 %42, ptr %69, align 4
  %indvars.iv.next = add nuw nsw i64 %indvars.iv, 1
  %.val37 = load i32, ptr %23, align 4
  %70 = sext i32 %.val37 to i64
  %71 = icmp slt i64 %indvars.iv.next, %70
  br i1 %71, label %.lr.ph, label %.critedge4.loopexit, !llvm.loop !4

.critedge4.loopexit:                              ; preds = %Vec_IntPush.exit
  %.val36.pre = load i32, ptr %21, align 4
  br label %.critedge4

.critedge4:                                       ; preds = %.critedge4.loopexit, %.lr.ph45.split
  %.val36 = phi i32 [ %.val36.pre, %.critedge4.loopexit ], [ %.val3664, %.lr.ph45.split ]
  %.val374161 = phi i32 [ %.val37, %.critedge4.loopexit ], [ %.val3741, %.lr.ph45.split ]
  %indvars.iv.next53 = add nuw nsw i64 %indvars.iv52, 1
  %72 = sext i32 %.val36 to i64
  %73 = icmp slt i64 %indvars.iv.next53, %72
  br i1 %73, label %.lr.ph45.split, label %.critedge2.loopexit, !llvm.loop !6

.critedge2.loopexit:                              ; preds = %.critedge4
  %.val.pre = load i32, ptr %18, align 4
  br label %.critedge2

.critedge2:                                       ; preds = %.lr.ph45, %.critedge2.loopexit, %.lr.ph48.split
  %.val = phi i32 [ %.val.pre, %.critedge2.loopexit ], [ %.val66, %.lr.ph48.split ], [ %.val66, %.lr.ph45 ]
  %.val3663 = phi i32 [ %.val36, %.critedge2.loopexit ], [ %.val3662, %.lr.ph48.split ], [ %.val3662, %.lr.ph45 ]
  %.val364359 = phi i32 [ %.val36, %.critedge2.loopexit ], [ %.val3643, %.lr.ph48.split ], [ %.val3643, %.lr.ph45 ]
  %indvars.iv.next56 = add nuw nsw i64 %indvars.iv55, 1
  %74 = sext i32 %.val to i64
  %75 = icmp slt i64 %indvars.iv.next56, %74
  br i1 %75, label %.lr.ph48.split, label %.critedge, !llvm.loop !8

.critedge:                                        ; preds = %.critedge2, %.lr.ph48, %13
  ret ptr %14
}